target datalayout = "e-m:e-p270:32:32-p271:32:32-p272:64:64-i64:64-i128:128-f80:128-n8:16:32:64-S128"
target triple = "x86_64-pc-linux-gnu"

%struct.malloc_state = type { i32, i32, i64, i64, ptr, ptr, ptr, i64, i64, i64, [66 x ptr], [32 x ptr], i64, i64, i64, i32, i32, %struct.malloc_segment, ptr, i64 }
%struct.malloc_segment = type { ptr, i64, ptr, i32 }

@_gm_ = internal global %struct.malloc_state zeroinitializer, align 8

; Function Attrs: nounwind uwtable
define hidden i32 @dlposix_memalign(ptr noundef %0, i64 noundef %1, i64 noundef %2) #0 {
  %4 = alloca i32, align 4
  %5 = alloca ptr, align 8
  %6 = alloca i64, align 8
  %7 = alloca i64, align 8
  %8 = alloca ptr, align 8
  %9 = alloca i64, align 8
  %10 = alloca i64, align 8
  %11 = alloca i32, align 4
  store ptr %0, ptr %5, align 8, !tbaa !16
  store i64 %1, ptr %6, align 8, !tbaa !3
  store i64 %2, ptr %7, align 8, !tbaa !3
  call void @llvm.lifetime.start.p0(i64 8, ptr %8) #9
  store ptr null, ptr %8, align 8, !tbaa !16
  %12 = load i64, ptr %6, align 8, !tbaa !3
  %13 = icmp eq i64 %12, 16
  br i1 %13, label %14, label %17

14:                                               ; preds = %3
  %15 = load i64, ptr %7, align 8, !tbaa !3
  %16 = call ptr @dlmalloc(i64 noundef %15)
  store ptr %16, ptr %8, align 8, !tbaa !16
  br label %52

17:                                               ; preds = %3
  call void @llvm.lifetime.start.p0(i64 8, ptr %9) #9
  %18 = load i64, ptr %6, align 8, !tbaa !3
  %19 = udiv i64 %18, 8
  store i64 %19, ptr %9, align 8, !tbaa !3
  call void @llvm.lifetime.start.p0(i64 8, ptr %10) #9
  %20 = load i64, ptr %6, align 8, !tbaa !3
  %21 = urem i64 %20, 8
  store i64 %21, ptr %10, align 8, !tbaa !3
  %22 = load i64, ptr %10, align 8, !tbaa !3
  %23 = icmp ne i64 %22, 0
  br i1 %23, label %33, label %24

24:                                               ; preds = %17
  %25 = load i64, ptr %9, align 8, !tbaa !3
  %26 = icmp eq i64 %25, 0
  br i1 %26, label %33, label %27

27:                                               ; preds = %24
  %28 = load i64, ptr %9, align 8, !tbaa !3
  %29 = load i64, ptr %9, align 8, !tbaa !3
  %30 = sub i64 %29, 1
  %31 = and i64 %28, %30
  %32 = icmp ne i64 %31, 0
  br i1 %32, label %33, label %34

33:                                               ; preds = %27, %24, %17
  store i32 22, ptr %4, align 4
  store i32 1, ptr %11, align 4
  br label %49

34:                                               ; preds = %27
  %35 = load i64, ptr %7, align 8, !tbaa !3
  %36 = load i64, ptr %6, align 8, !tbaa !3
  %37 = sub i64 -128, %36
  %38 = icmp ule i64 %35, %37
  br i1 %38, label %39, label %47

39:                                               ; preds = %34
  %40 = load i64, ptr %6, align 8, !tbaa !3
  %41 = icmp ult i64 %40, 32
  br i1 %41, label %42, label %43

42:                                               ; preds = %39
  store i64 32, ptr %6, align 8, !tbaa !3
  br label %43

43:                                               ; preds = %42, %39
  %44 = load i64, ptr %6, align 8, !tbaa !3
  %45 = load i64, ptr %7, align 8, !tbaa !3
  %46 = call ptr @internal_memalign(ptr noundef @_gm_, i64 noundef %44, i64 noundef %45)
  store ptr %46, ptr %8, align 8, !tbaa !16
  br label %47

47:                                               ; preds = %43, %34
  br label %48

48:                                               ; preds = %47
  store i32 0, ptr %11, align 4
  br label %49

49:                                               ; preds = %48, %33
  call void @llvm.lifetime.end.p0(i64 8, ptr %10) #9
  call void @llvm.lifetime.end.p0(i64 8, ptr %9) #9
  %50 = load i32, ptr %11, align 4
  switch i32 %50, label %59 [
    i32 0, label %51
  ]

51:                                               ; preds = %49
  br label %52

52:                                               ; preds = %51, %14
  %53 = load ptr, ptr %8, align 8, !tbaa !16
  %54 = icmp eq ptr %53, null
  br i1 %54, label %55, label %56

55:                                               ; preds = %52
  store i32 12, ptr %4, align 4
  store i32 1, ptr %11, align 4
  br label %59

56:                                               ; preds = %52
  %57 = load ptr, ptr %8, align 8, !tbaa !16
  %58 = load ptr, ptr %5, align 8, !tbaa !16
  store ptr %57, ptr %58, align 8, !tbaa !16
  store i32 0, ptr %4, align 4
  store i32 1, ptr %11, align 4
  br label %59

59:                                               ; preds = %56, %55, %49
  call void @llvm.lifetime.end.p0(i64 8, ptr %8) #9
  %60 = load i32, ptr %4, align 4
  ret i32 %60
}