; Function Attrs: nounwind uwtable
define hidden range(i32 0, 23) i32 @dlposix_memalign(ptr nocapture noundef writeonly %0, i64 noundef %1, i64 noundef %2) local_unnamed_addr #0 {
  %4 = icmp eq i64 %1, 16
  br i1 %4, label %5, label %7

5:                                                ; preds = %3
  %6 = tail call ptr @dlmalloc(i64 noundef %2)
  br label %.thread

7:                                                ; preds = %3
  %8 = and i64 %1, 7
  %9 = icmp ne i64 %8, 0
  %10 = icmp ult i64 %1, 8
  %or.cond = or i1 %10, %9
  br i1 %or.cond, label %.thread.thread, label %11

11:                                               ; preds = %7
  %12 = lshr exact i64 %1, 3
  %13 = tail call range(i64 0, 62) i64 @llvm.ctpop.i64(i64 %12)
  %.not = icmp samesign ult i64 %13, 2
  br i1 %.not, label %14, label %.thread.thread

14:                                               ; preds = %11
  %15 = sub i64 -128, %1
  %.not24 = icmp ugt i64 %2, %15
  br i1 %.not24, label %.thread.thread, label %16

16:                                               ; preds = %14
  %spec.store.select = tail call i64 @llvm.umax.i64(i64 %1, i64 32)
  %17 = tail call fastcc ptr @internal_memalign(ptr noundef nonnull @_gm_, i64 noundef %spec.store.select, i64 noundef %2)
  br label %.thread

.thread:                                          ; preds = %16, %5
  %.019 = phi ptr [ %6, %5 ], [ %17, %16 ]
  %18 = icmp eq ptr %.019, null
  br i1 %18, label %.thread.thread, label %19

19:                                               ; preds = %.thread
  store ptr %.019, ptr %0, align 8, !tbaa !37
  br label %.thread.thread

.thread.thread:                                   ; preds = %14, %11, %7, %.thread, %19
  %.1 = phi i32 [ 0, %19 ], [ 12, %.thread ], [ 22, %7 ], [ 22, %11 ], [ 12, %14 ]
  ret i32 %.1
}